target datalayout = "e-m:e-p270:32:32-p271:32:32-p272:64:64-i64:64-i128:128-f80:128-n8:16:32:64-S128"
target triple = "x86_64-pc-linux-gnu"

@_ZN3ozz7options8internal12_GLOBAL__N_115GlobalRegistrer7parser_E = internal global ptr null, align 8
@_ZN3ozz7options6ParserD1Ev = dso_local unnamed_addr alias void (ptr), ptr @_ZN3ozz7options6ParserD2Ev

; Function Attrs: mustprogress nounwind uwtable
define internal void @_ZN3ozz7options8internal12_GLOBAL__N_115GlobalRegistrerD2Ev(ptr noundef nonnull align 1 dereferenceable(1) %0) unnamed_addr #6 align 2 {
  %2 = alloca ptr, align 8
  store ptr %0, ptr %2, align 8, !tbaa !97
  %3 = load ptr, ptr @_ZN3ozz7options8internal12_GLOBAL__N_115GlobalRegistrer7parser_E, align 8, !tbaa !24
  %4 = icmp ne ptr %3, null
  br i1 %4, label %5, label %7

5:                                                ; preds = %1
  %6 = load ptr, ptr @_ZN3ozz7options8internal12_GLOBAL__N_115GlobalRegistrer7parser_E, align 8, !tbaa !24
  call void @_ZN3ozz7options6ParserD1Ev(ptr noundef nonnull align 8 dereferenceable(400) %6) #3
  store ptr null, ptr @_ZN3ozz7options8internal12_GLOBAL__N_115GlobalRegistrer7parser_E, align 8, !tbaa !24
  br label %7

7:                                                ; preds = %5, %1
  ret void
}