; Function Attrs: mustprogress nounwind uwtable
define internal void @_ZN3ozz7options8internal12_GLOBAL__N_115GlobalRegistrerD2Ev(ptr nonnull readnone align 1 captures(none) %0) unnamed_addr #4 align 2 {
  %2 = load ptr, ptr @_ZN3ozz7options8internal12_GLOBAL__N_115GlobalRegistrer7parser_E, align 8, !tbaa !20
  %.not = icmp eq ptr %2, null
  br i1 %.not, label %4, label %3

3:                                                ; preds = %1
  tail call void @_ZN3ozz7options6ParserD2Ev(ptr noundef nonnull align 8 dereferenceable(400) %2) #29
  store ptr null, ptr @_ZN3ozz7options8internal12_GLOBAL__N_115GlobalRegistrer7parser_E, align 8, !tbaa !20
  br label %4

4:                                                ; preds = %3, %1
  ret void
}